target datalayout = "e-m:e-p270:32:32-p271:32:32-p272:64:64-i64:64-i128:128-f80:128-n8:16:32:64-S128"
target triple = "x86_64-pc-linux-gnu"

%struct.UConverterToUnicodeArgs = type { i16, i8, ptr, ptr, ptr, ptr, ptr, ptr }
%struct.UConverterFromUnicodeArgs = type { i16, i8, ptr, ptr, ptr, ptr, ptr, ptr }
%struct.UConverter = type { ptr, ptr, ptr, ptr, ptr, ptr, ptr, i32, i8, i8, i8, i8, i8, [7 x i8], i32, i32, i32, i32, i8, i8, i8, i8, i8, i8, i8, i8, [8 x i8], [32 x i8], [2 x i16], [2 x i16], [32 x i16], i32, [19 x i16], [31 x i8], i8, i8, i8, i32 }
%struct.UConverterSharedData = type { i32, i32, ptr, ptr, i8, i8, ptr, i32, %struct.UConverterMBCSTable }
%struct.UConverterMBCSTable = type { i8, i8, i8, i32, ptr, ptr, ptr, ptr, ptr, ptr, [64 x i16], ptr, ptr, i32, i8, i8, i8, i16, i32, ptr, ptr, ptr, ptr }
%struct.UConverterImpl = type { i32, ptr, ptr, ptr, ptr, ptr, ptr, ptr, ptr, ptr, ptr, ptr, ptr, ptr, ptr, ptr, ptr, ptr }

; Function Attrs: mustprogress uwtable
define internal void @_ZL6_resetP10UConverter21UConverterResetChoicea(ptr noundef %0, i32 noundef %1, i8 noundef signext %2) #0 {
  %4 = alloca ptr, align 8
  %5 = alloca i32, align 4
  %6 = alloca i8, align 1
  %7 = alloca i32, align 4
  %8 = alloca %struct.UConverterToUnicodeArgs, align 8
  %9 = alloca %struct.UConverterFromUnicodeArgs, align 8
  store ptr %0, ptr %4, align 8, !tbaa !11
  store i32 %1, ptr %5, align 4, !tbaa !64
  store i8 %2, ptr %6, align 1, !tbaa !19
  %10 = load ptr, ptr %4, align 8, !tbaa !11
  %11 = icmp eq ptr %10, null
  br i1 %11, label %12, label %13

12:                                               ; preds = %3
  br label %111

13:                                               ; preds = %3
  %14 = load i8, ptr %6, align 1, !tbaa !19
  %15 = icmp ne i8 %14, 0
  br i1 %15, label %16, label %55

16:                                               ; preds = %13
  call void @llvm.lifetime.start.p0(i64 4, ptr %7) #11
  %17 = load i32, ptr %5, align 4, !tbaa !64
  %18 = icmp sle i32 %17, 1
  br i1 %18, label %19, label %35

19:                                               ; preds = %16
  %20 = load ptr, ptr %4, align 8, !tbaa !11
  %21 = getelementptr inbounds nuw %struct.UConverter, ptr %20, i32 0, i32 1
  %22 = load ptr, ptr %21, align 8, !tbaa !47
  %23 = icmp ne ptr %22, @UCNV_TO_U_CALLBACK_SUBSTITUTE_77
  br i1 %23, label %24, label %35

24:                                               ; preds = %19
  call void @llvm.lifetime.start.p0(i64 56, ptr %8) #11
  call void @llvm.memset.p0.i64(ptr align 8 %8, i8 0, i64 56, i1 false)
  %25 = getelementptr inbounds %struct.UConverterToUnicodeArgs, ptr %8, i32 0, i32 0
  store i16 56, ptr %25, align 8
  %26 = getelementptr inbounds %struct.UConverterToUnicodeArgs, ptr %8, i32 0, i32 1
  store i8 1, ptr %26, align 2
  %27 = load ptr, ptr %4, align 8, !tbaa !11
  %28 = getelementptr inbounds nuw %struct.UConverterToUnicodeArgs, ptr %8, i32 0, i32 2
  store ptr %27, ptr %28, align 8, !tbaa !45
  store i32 0, ptr %7, align 4, !tbaa !9
  %29 = load ptr, ptr %4, align 8, !tbaa !11
  %30 = getelementptr inbounds nuw %struct.UConverter, ptr %29, i32 0, i32 1
  %31 = load ptr, ptr %30, align 8, !tbaa !47
  %32 = load ptr, ptr %4, align 8, !tbaa !11
  %33 = getelementptr inbounds nuw %struct.UConverter, ptr %32, i32 0, i32 4
  %34 = load ptr, ptr %33, align 8, !tbaa !48
  call void %31(ptr noundef %34, ptr noundef %8, ptr noundef null, i32 noundef 0, i32 noundef 3, ptr noundef %7)
  call void @llvm.lifetime.end.p0(i64 56, ptr %8) #11
  br label %35

35:                                               ; preds = %24, %19, %16
  %36 = load i32, ptr %5, align 4, !tbaa !64
  %37 = icmp ne i32 %36, 1
  br i1 %37, label %38, label %54

38:                                               ; preds = %35
  %39 = load ptr, ptr %4, align 8, !tbaa !11
  %40 = getelementptr inbounds nuw %struct.UConverter, ptr %39, i32 0, i32 0
  %41 = load ptr, ptr %40, align 8, !tbaa !49
  %42 = icmp ne ptr %41, @UCNV_FROM_U_CALLBACK_SUBSTITUTE_77
  br i1 %42, label %43, label %54

43:                                               ; preds = %38
  call void @llvm.lifetime.start.p0(i64 56, ptr %9) #11
  call void @llvm.memset.p0.i64(ptr align 8 %9, i8 0, i64 56, i1 false)
  %44 = getelementptr inbounds %struct.UConverterFromUnicodeArgs, ptr %9, i32 0, i32 0
  store i16 56, ptr %44, align 8
  %45 = getelementptr inbounds %struct.UConverterFromUnicodeArgs, ptr %9, i32 0, i32 1
  store i8 1, ptr %45, align 2
  %46 = load ptr, ptr %4, align 8, !tbaa !11
  %47 = getelementptr inbounds nuw %struct.UConverterFromUnicodeArgs, ptr %9, i32 0, i32 2
  store ptr %46, ptr %47, align 8, !tbaa !42
  store i32 0, ptr %7, align 4, !tbaa !9
  %48 = load ptr, ptr %4, align 8, !tbaa !11
  %49 = getelementptr inbounds nuw %struct.UConverter, ptr %48, i32 0, i32 0
  %50 = load ptr, ptr %49, align 8, !tbaa !49
  %51 = load ptr, ptr %4, align 8, !tbaa !11
  %52 = getelementptr inbounds nuw %struct.UConverter, ptr %51, i32 0, i32 3
  %53 = load ptr, ptr %52, align 8, !tbaa !50
  call void %50(ptr noundef %53, ptr noundef %9, ptr noundef null, i32 noundef 0, i32 noundef 0, i32 noundef 3, ptr noundef %7)
  call void @llvm.lifetime.end.p0(i64 56, ptr %9) #11
  br label %54

54:                                               ; preds = %43, %38, %35
  call void @llvm.lifetime.end.p0(i64 4, ptr %7) #11
  br label %55

55:                                               ; preds = %54, %13
  %56 = load i32, ptr %5, align 4, !tbaa !64
  %57 = icmp sle i32 %56, 1
  br i1 %57, label %58, label %76

58:                                               ; preds = %55
  %59 = load ptr, ptr %4, align 8, !tbaa !11
  %60 = getelementptr inbounds nuw %struct.UConverter, ptr %59, i32 0, i32 6
  %61 = load ptr, ptr %60, align 8, !tbaa !22
  %62 = getelementptr inbounds nuw %struct.UConverterSharedData, ptr %61, i32 0, i32 7
  %63 = load i32, ptr %62, align 8, !tbaa !66
  %64 = load ptr, ptr %4, align 8, !tbaa !11
  %65 = getelementptr inbounds nuw %struct.UConverter, ptr %64, i32 0, i32 14
  store i32 %63, ptr %65, align 8, !tbaa !67
  %66 = load ptr, ptr %4, align 8, !tbaa !11
  %67 = getelementptr inbounds nuw %struct.UConverter, ptr %66, i32 0, i32 15
  store i32 0, ptr %67, align 4, !tbaa !68
  %68 = load ptr, ptr %4, align 8, !tbaa !11
  %69 = getelementptr inbounds nuw %struct.UConverter, ptr %68, i32 0, i32 12
  store i8 0, ptr %69, align 8, !tbaa !69
  %70 = load ptr, ptr %4, align 8, !tbaa !11
  %71 = getelementptr inbounds nuw %struct.UConverter, ptr %70, i32 0, i32 23
  store i8 0, ptr %71, align 1, !tbaa !70
  %72 = load ptr, ptr %4, align 8, !tbaa !11
  %73 = getelementptr inbounds nuw %struct.UConverter, ptr %72, i32 0, i32 20
  store i8 0, ptr %73, align 2, !tbaa !71
  %74 = load ptr, ptr %4, align 8, !tbaa !11
  %75 = getelementptr inbounds nuw %struct.UConverter, ptr %74, i32 0, i32 35
  store i8 0, ptr %75, align 2, !tbaa !72
  br label %76

76:                                               ; preds = %58, %55
  %77 = load i32, ptr %5, align 4, !tbaa !64
  %78 = icmp ne i32 %77, 1
  br i1 %78, label %79, label %92

79:                                               ; preds = %76
  %80 = load ptr, ptr %4, align 8, !tbaa !11
  %81 = getelementptr inbounds nuw %struct.UConverter, ptr %80, i32 0, i32 16
  store i32 0, ptr %81, align 8, !tbaa !73
  %82 = load ptr, ptr %4, align 8, !tbaa !11
  %83 = getelementptr inbounds nuw %struct.UConverter, ptr %82, i32 0, i32 17
  store i32 0, ptr %83, align 4, !tbaa !74
  %84 = load ptr, ptr %4, align 8, !tbaa !11
  %85 = getelementptr inbounds nuw %struct.UConverter, ptr %84, i32 0, i32 21
  store i8 0, ptr %85, align 1, !tbaa !75
  %86 = load ptr, ptr %4, align 8, !tbaa !11
  %87 = getelementptr inbounds nuw %struct.UConverter, ptr %86, i32 0, i32 22
  store i8 0, ptr %87, align 4, !tbaa !76
  %88 = load ptr, ptr %4, align 8, !tbaa !11
  %89 = getelementptr inbounds nuw %struct.UConverter, ptr %88, i32 0, i32 31
  store i32 -1, ptr %89, align 8, !tbaa !77
  %90 = load ptr, ptr %4, align 8, !tbaa !11
  %91 = getelementptr inbounds nuw %struct.UConverter, ptr %90, i32 0, i32 34
  store i8 0, ptr %91, align 1, !tbaa !78
  br label %92

92:                                               ; preds = %79, %76
  %93 = load ptr, ptr %4, align 8, !tbaa !11
  %94 = getelementptr inbounds nuw %struct.UConverter, ptr %93, i32 0, i32 6
  %95 = load ptr, ptr %94, align 8, !tbaa !22
  %96 = getelementptr inbounds nuw %struct.UConverterSharedData, ptr %95, i32 0, i32 6
  %97 = load ptr, ptr %96, align 8, !tbaa !26
  %98 = getelementptr inbounds nuw %struct.UConverterImpl, ptr %97, i32 0, i32 5
  %99 = load ptr, ptr %98, align 8, !tbaa !79
  %100 = icmp ne ptr %99, null
  br i1 %100, label %101, label %111

101:                                              ; preds = %92
  %102 = load ptr, ptr %4, align 8, !tbaa !11
  %103 = getelementptr inbounds nuw %struct.UConverter, ptr %102, i32 0, i32 6
  %104 = load ptr, ptr %103, align 8, !tbaa !22
  %105 = getelementptr inbounds nuw %struct.UConverterSharedData, ptr %104, i32 0, i32 6
  %106 = load ptr, ptr %105, align 8, !tbaa !26
  %107 = getelementptr inbounds nuw %struct.UConverterImpl, ptr %106, i32 0, i32 5
  %108 = load ptr, ptr %107, align 8, !tbaa !79
  %109 = load ptr, ptr %4, align 8, !tbaa !11
  %110 = load i32, ptr %5, align 4, !tbaa !64
  call void %108(ptr noundef %109, i32 noundef %110)
  br label %111

111:                                              ; preds = %12, %101, %92
  ret void
}