; Function Attrs: mustprogress uwtable
define internal fastcc void @_ZL6_resetP10UConverter21UConverterResetChoicea(ptr noundef %0, i32 noundef range(i32 0, 3) %1, i8 noundef signext range(i8 0, 2) %2) unnamed_addr #0 {
  %4 = alloca i32, align 4
  %5 = alloca %struct.UConverterToUnicodeArgs, align 8
  %6 = alloca %struct.UConverterFromUnicodeArgs, align 8
  %7 = icmp eq ptr %0, null
  br i1 %7, label %52, label %8

8:                                                ; preds = %3
  %.not = icmp eq i8 %2, 0
  br i1 %.not, label %27, label %9

9:                                                ; preds = %8
  call void @llvm.lifetime.start.p0(i64 4, ptr nonnull %4) #16
  %10 = icmp samesign ult i32 %1, 2
  br i1 %10, label %11, label %.thread

11:                                               ; preds = %9
  %12 = getelementptr inbounds nuw i8, ptr %0, i64 8
  %13 = load ptr, ptr %12, align 8, !tbaa !38
  %.not31 = icmp eq ptr %13, @UCNV_TO_U_CALLBACK_SUBSTITUTE_77
  br i1 %.not31, label %19, label %14

14:                                               ; preds = %11
  call void @llvm.lifetime.start.p0(i64 56, ptr nonnull %5) #16
  call void @llvm.memset.p0.i64(ptr noundef nonnull align 8 dereferenceable(56) %5, i8 0, i64 56, i1 false)
  store i16 56, ptr %5, align 8
  %15 = getelementptr inbounds nuw i8, ptr %5, i64 2
  store i8 1, ptr %15, align 2
  %16 = getelementptr inbounds nuw i8, ptr %5, i64 8
  store ptr %0, ptr %16, align 8, !tbaa !36
  store i32 0, ptr %4, align 4, !tbaa !3
  %17 = getelementptr inbounds nuw i8, ptr %0, i64 32
  %18 = load ptr, ptr %17, align 8, !tbaa !39
  call void %13(ptr noundef %18, ptr noundef nonnull %5, ptr noundef null, i32 noundef 0, i32 noundef 3, ptr noundef nonnull %4)
  call void @llvm.lifetime.end.p0(i64 56, ptr nonnull %5) #16
  br label %19

19:                                               ; preds = %14, %11
  %.not32 = icmp eq i32 %1, 1
  br i1 %.not32, label %26, label %.thread

.thread:                                          ; preds = %9, %19
  %20 = load ptr, ptr %0, align 8, !tbaa !40
  %.not33 = icmp eq ptr %20, @UCNV_FROM_U_CALLBACK_SUBSTITUTE_77
  br i1 %.not33, label %26, label %21

21:                                               ; preds = %.thread
  call void @llvm.lifetime.start.p0(i64 56, ptr nonnull %6) #16
  call void @llvm.memset.p0.i64(ptr noundef nonnull align 8 dereferenceable(56) %6, i8 0, i64 56, i1 false)
  store i16 56, ptr %6, align 8
  %22 = getelementptr inbounds nuw i8, ptr %6, i64 2
  store i8 1, ptr %22, align 2
  %23 = getelementptr inbounds nuw i8, ptr %6, i64 8
  store ptr %0, ptr %23, align 8, !tbaa !31
  store i32 0, ptr %4, align 4, !tbaa !3
  %24 = getelementptr inbounds nuw i8, ptr %0, i64 24
  %25 = load ptr, ptr %24, align 8, !tbaa !41
  call void %20(ptr noundef %25, ptr noundef nonnull %6, ptr noundef null, i32 noundef 0, i32 noundef 0, i32 noundef 3, ptr noundef nonnull %4)
  call void @llvm.lifetime.end.p0(i64 56, ptr nonnull %6) #16
  br label %26

26:                                               ; preds = %21, %.thread, %19
  call void @llvm.lifetime.end.p0(i64 4, ptr nonnull %4) #16
  br label %27

27:                                               ; preds = %26, %8
  %28 = icmp samesign ult i32 %1, 2
  %29 = getelementptr inbounds nuw i8, ptr %0, i64 48
  %30 = load ptr, ptr %29, align 8, !tbaa !8
  br i1 %28, label %31, label %.thread37

31:                                               ; preds = %27
  %32 = getelementptr inbounds nuw i8, ptr %30, i64 40
  %33 = load i32, ptr %32, align 8, !tbaa !63
  %34 = getelementptr inbounds nuw i8, ptr %0, i64 72
  store i32 %33, ptr %34, align 8, !tbaa !64
  %35 = getelementptr inbounds nuw i8, ptr %0, i64 76
  store i32 0, ptr %35, align 4, !tbaa !65
  %36 = getelementptr inbounds nuw i8, ptr %0, i64 64
  store i8 0, ptr %36, align 8, !tbaa !66
  %37 = getelementptr inbounds nuw i8, ptr %0, i64 93
  store i8 0, ptr %37, align 1, !tbaa !67
  %38 = getelementptr inbounds nuw i8, ptr %0, i64 90
  store i8 0, ptr %38, align 2, !tbaa !68
  %39 = getelementptr inbounds nuw i8, ptr %0, i64 282
  store i8 0, ptr %39, align 2, !tbaa !69
  %.not34 = icmp eq i32 %1, 1
  br i1 %.not34, label %46, label %.thread37

.thread37:                                        ; preds = %27, %31
  %40 = getelementptr inbounds nuw i8, ptr %0, i64 80
  store i32 0, ptr %40, align 8, !tbaa !54
  %41 = getelementptr inbounds nuw i8, ptr %0, i64 84
  store i32 0, ptr %41, align 4, !tbaa !55
  %42 = getelementptr inbounds nuw i8, ptr %0, i64 91
  store i8 0, ptr %42, align 1, !tbaa !56
  %43 = getelementptr inbounds nuw i8, ptr %0, i64 92
  store i8 0, ptr %43, align 4, !tbaa !57
  %44 = getelementptr inbounds nuw i8, ptr %0, i64 208
  store i32 -1, ptr %44, align 8, !tbaa !58
  %45 = getelementptr inbounds nuw i8, ptr %0, i64 281
  store i8 0, ptr %45, align 1, !tbaa !59
  br label %46

46:                                               ; preds = %.thread37, %31
  %47 = getelementptr inbounds nuw i8, ptr %30, i64 32
  %48 = load ptr, ptr %47, align 8, !tbaa !15
  %49 = getelementptr inbounds nuw i8, ptr %48, i64 40
  %50 = load ptr, ptr %49, align 8, !tbaa !60
  %.not35 = icmp eq ptr %50, null
  br i1 %.not35, label %52, label %51

51:                                               ; preds = %46
  call void %50(ptr noundef nonnull %0, i32 noundef %1)
  br label %52

52:                                               ; preds = %3, %51, %46
  ret void
}